#include <math.h>
#include <stdio.h>
#include <stdlib.h>
#include <string.h>

// ???.cpp : Defines the entry point for the console application.
//


int main(int argc, char* argv[])
{
	char a[1000],b[1000];
	scanf("%s %s",a,b);
	int lena=strlen(a);
	int lenb=strlen(b);
	if(lena!=lenb){
		printf("NO");
	}
	else{
		int i,j,k=0,num=0,count=0;
		int same=0,tong[1000];
		for(i=0;i<1000;i++){
			tong[i]=0;
		}
		for(i=0;i<lena;i++){
			for(j=i+1;j<lena;j++){
				if(a[i]==a[j]){
					tong[k]++;
					num++;
				}
			}
		}
		for(i=0;i<num;i++){
			same=same+tong[i]+1;
		}
		for(i=0;i<lena;i++){
			for(j=0;j<lenb;j++){
				if(a[i]==b[j]){
					count++;
				}
			}
		}
		if(count==lena+same){
			printf("YES");
		}
		else{
			printf("NO");
		}
	}
	return 0;
}

