target datalayout = "e-m:e-p270:32:32-p271:32:32-p272:64:64-i64:64-f80:128-n8:16:32:64-S128"
target triple = "x86_64-pc-linux-gnu"

@.str = private unnamed_addr constant [6 x i8] c"%s %s\00", align 1
@.str.1 = private unnamed_addr constant [3 x i8] c"NO\00", align 1
@.str.2 = private unnamed_addr constant [4 x i8] c"YES\00", align 1

; Function Attrs: noinline nounwind uwtable
define dso_local i32 @main(i32 %0, i8** %1) #0 {
  %3 = alloca i32, align 4
  %4 = alloca i32, align 4
  %5 = alloca i8**, align 8
  %6 = alloca [1000 x i8], align 16
  %7 = alloca [1000 x i8], align 16
  %8 = alloca i32, align 4
  %9 = alloca i32, align 4
  %10 = alloca i32, align 4
  %11 = alloca i32, align 4
  %12 = alloca i32, align 4
  %13 = alloca i32, align 4
  %14 = alloca i32, align 4
  %15 = alloca i32, align 4
  %16 = alloca [1000 x i32], align 16
  store i32 0, i32* %3, align 4
  store i32 %0, i32* %4, align 4
  store i8** %1, i8*** %5, align 8
  %17 = getelementptr inbounds [1000 x i8], [1000 x i8]* %6, i64 0, i64 0
  %18 = getelementptr inbounds [1000 x i8], [1000 x i8]* %7, i64 0, i64 0
  %19 = call i32 (i8*, ...) @__isoc99_scanf(i8* getelementptr inbounds ([6 x i8], [6 x i8]* @.str, i64 0, i64 0), i8* %17, i8* %18)
  %20 = getelementptr inbounds [1000 x i8], [1000 x i8]* %6, i64 0, i64 0
  %21 = call i64 @strlen(i8* %20) #3
  %22 = trunc i64 %21 to i32
  store i32 %22, i32* %8, align 4
  %23 = getelementptr inbounds [1000 x i8], [1000 x i8]* %7, i64 0, i64 0
  %24 = call i64 @strlen(i8* %23) #3
  %25 = trunc i64 %24 to i32
  store i32 %25, i32* %9, align 4
  %26 = load i32, i32* %8, align 4
  %27 = load i32, i32* %9, align 4
  %28 = icmp ne i32 %26, %27
  br i1 %28, label %29, label %31

29:                                               ; preds = %2
  %30 = call i32 (i8*, ...) @printf(i8* getelementptr inbounds ([3 x i8], [3 x i8]* @.str.1, i64 0, i64 0))
  br label %142

31:                                               ; preds = %2
  store i32 0, i32* %12, align 4
  store i32 0, i32* %13, align 4
  store i32 0, i32* %14, align 4
  store i32 0, i32* %15, align 4
  store i32 0, i32* %10, align 4
  br label %32

32:                                               ; preds = %39, %31
  %33 = load i32, i32* %10, align 4
  %34 = icmp slt i32 %33, 1000
  br i1 %34, label %35, label %42

35:                                               ; preds = %32
  %36 = load i32, i32* %10, align 4
  %37 = sext i32 %36 to i64
  %38 = getelementptr inbounds [1000 x i32], [1000 x i32]* %16, i64 0, i64 %37
  store i32 0, i32* %38, align 4
  br label %39

39:                                               ; preds = %35
  %40 = load i32, i32* %10, align 4
  %41 = add nsw i32 %40, 1
  store i32 %41, i32* %10, align 4
  br label %32

42:                                               ; preds = %32
  store i32 0, i32* %10, align 4
  br label %43

43:                                               ; preds = %79, %42
  %44 = load i32, i32* %10, align 4
  %45 = load i32, i32* %8, align 4
  %46 = icmp slt i32 %44, %45
  br i1 %46, label %47, label %82

47:                                               ; preds = %43
  %48 = load i32, i32* %10, align 4
  %49 = add nsw i32 %48, 1
  store i32 %49, i32* %11, align 4
  br label %50

50:                                               ; preds = %75, %47
  %51 = load i32, i32* %11, align 4
  %52 = load i32, i32* %8, align 4
  %53 = icmp slt i32 %51, %52
  br i1 %53, label %54, label %78

54:                                               ; preds = %50
  %55 = load i32, i32* %10, align 4
  %56 = sext i32 %55 to i64
  %57 = getelementptr inbounds [1000 x i8], [1000 x i8]* %6, i64 0, i64 %56
  %58 = load i8, i8* %57, align 1
  %59 = sext i8 %58 to i32
  %60 = load i32, i32* %11, align 4
  %61 = sext i32 %60 to i64
  %62 = getelementptr inbounds [1000 x i8], [1000 x i8]* %6, i64 0, i64 %61
  %63 = load i8, i8* %62, align 1
  %64 = sext i8 %63 to i32
  %65 = icmp eq i32 %59, %64
  br i1 %65, label %66, label %74

66:                                               ; preds = %54
  %67 = load i32, i32* %12, align 4
  %68 = sext i32 %67 to i64
  %69 = getelementptr inbounds [1000 x i32], [1000 x i32]* %16, i64 0, i64 %68
  %70 = load i32, i32* %69, align 4
  %71 = add nsw i32 %70, 1
  store i32 %71, i32* %69, align 4
  %72 = load i32, i32* %13, align 4
  %73 = add nsw i32 %72, 1
  store i32 %73, i32* %13, align 4
  br label %74

74:                                               ; preds = %66, %54
  br label %75

75:                                               ; preds = %74
  %76 = load i32, i32* %11, align 4
  %77 = add nsw i32 %76, 1
  store i32 %77, i32* %11, align 4
  br label %50

78:                                               ; preds = %50
  br label %79

79:                                               ; preds = %78
  %80 = load i32, i32* %10, align 4
  %81 = add nsw i32 %80, 1
  store i32 %81, i32* %10, align 4
  br label %43

82:                                               ; preds = %43
  store i32 0, i32* %10, align 4
  br label %83

83:                                               ; preds = %95, %82
  %84 = load i32, i32* %10, align 4
  %85 = load i32, i32* %13, align 4
  %86 = icmp slt i32 %84, %85
  br i1 %86, label %87, label %98

87:                                               ; preds = %83
  %88 = load i32, i32* %15, align 4
  %89 = load i32, i32* %10, align 4
  %90 = sext i32 %89 to i64
  %91 = getelementptr inbounds [1000 x i32], [1000 x i32]* %16, i64 0, i64 %90
  %92 = load i32, i32* %91, align 4
  %93 = add nsw i32 %88, %92
  %94 = add nsw i32 %93, 1
  store i32 %94, i32* %15, align 4
  br label %95

95:                                               ; preds = %87
  %96 = load i32, i32* %10, align 4
  %97 = add nsw i32 %96, 1
  store i32 %97, i32* %10, align 4
  br label %83

98:                                               ; preds = %83
  store i32 0, i32* %10, align 4
  br label %99

99:                                               ; preds = %128, %98
  %100 = load i32, i32* %10, align 4
  %101 = load i32, i32* %8, align 4
  %102 = icmp slt i32 %100, %101
  br i1 %102, label %103, label %131

103:                                              ; preds = %99
  store i32 0, i32* %11, align 4
  br label %104

104:                                              ; preds = %124, %103
  %105 = load i32, i32* %11, align 4
  %106 = load i32, i32* %9, align 4
  %107 = icmp slt i32 %105, %106
  br i1 %107, label %108, label %127

108:                                              ; preds = %104
  %109 = load i32, i32* %10, align 4
  %110 = sext i32 %109 to i64
  %111 = getelementptr inbounds [1000 x i8], [1000 x i8]* %6, i64 0, i64 %110
  %112 = load i8, i8* %111, align 1
  %113 = sext i8 %112 to i32
  %114 = load i32, i32* %11, align 4
  %115 = sext i32 %114 to i64
  %116 = getelementptr inbounds [1000 x i8], [1000 x i8]* %7, i64 0, i64 %115
  %117 = load i8, i8* %116, align 1
  %118 = sext i8 %117 to i32
  %119 = icmp eq i32 %113, %118
  br i1 %119, label %120, label %123

120:                                              ; preds = %108
  %121 = load i32, i32* %14, align 4
  %122 = add nsw i32 %121, 1
  store i32 %122, i32* %14, align 4
  br label %123

123:                                              ; preds = %120, %108
  br label %124

124:                                              ; preds = %123
  %125 = load i32, i32* %11, align 4
  %126 = add nsw i32 %125, 1
  store i32 %126, i32* %11, align 4
  br label %104

127:                                              ; preds = %104
  br label %128

128:                                              ; preds = %127
  %129 = load i32, i32* %10, align 4
  %130 = add nsw i32 %129, 1
  store i32 %130, i32* %10, align 4
  br label %99

131:                                              ; preds = %99
  %132 = load i32, i32* %14, align 4
  %133 = load i32, i32* %8, align 4
  %134 = load i32, i32* %15, align 4
  %135 = add nsw i32 %133, %134
  %136 = icmp eq i32 %132, %135
  br i1 %136, label %137, label %139

137:                                              ; preds = %131
  %138 = call i32 (i8*, ...) @printf(i8* getelementptr inbounds ([4 x i8], [4 x i8]* @.str.2, i64 0, i64 0))
  br label %141

139:                                              ; preds = %131
  %140 = call i32 (i8*, ...) @printf(i8* getelementptr inbounds ([3 x i8], [3 x i8]* @.str.1, i64 0, i64 0))
  br label %141

141:                                              ; preds = %139, %137
  br label %142

142:                                              ; preds = %141, %29
  ret i32 0
}